target datalayout = "e-m:e-p270:32:32-p271:32:32-p272:64:64-i64:64-i128:128-f80:128-n8:16:32:64-S128"
target triple = "x86_64-pc-linux-gnu"

%struct.FunctionCallInfoBaseData = type { ptr, ptr, ptr, i32, i8, i16, [0 x %struct.NullableDatum] }
%struct.NullableDatum = type { i64, i8 }

@.str.1 = private unnamed_addr constant [15 x i8] c"ginarrayproc.c\00", align 1
@.str.3 = private unnamed_addr constant [48 x i8] c"ginarrayconsistent: unknown strategy number: %d\00", align 1
@__func__.ginarrayconsistent = private unnamed_addr constant [19 x i8] c"ginarrayconsistent\00", align 1

; Function Attrs: inlinehint nounwind uwtable
define internal i64 @BoolGetDatum(i1 noundef zeroext %0) #3 {
  %2 = alloca i8, align 1
  %3 = zext i1 %0 to i8
  store i8 %3, ptr %2, align 1
  %4 = load i8, ptr %2, align 1, !range !4, !noundef !5
  %5 = trunc i8 %4 to i1
  %6 = select i1 %5, i32 1, i32 0
  %7 = sext i32 %6 to i64
  ret i64 %7
}

; Function Attrs: inlinehint nounwind uwtable
define internal i32 @DatumGetInt32(i64 noundef %0) #3 {
  %2 = alloca i64, align 8
  store i64 %0, ptr %2, align 8
  %3 = load i64, ptr %2, align 8
  %4 = trunc i64 %3 to i32
  ret i32 %4
}

; Function Attrs: inlinehint nounwind uwtable
define internal zeroext i16 @DatumGetUInt16(i64 noundef %0) #3 {
  %2 = alloca i64, align 8
  store i64 %0, ptr %2, align 8
  %3 = load i64, ptr %2, align 8
  %4 = trunc i64 %3 to i16
  ret i16 %4
}

; Function Attrs: inlinehint nounwind uwtable
define internal ptr @DatumGetPointer(i64 noundef %0) #3 {
  %2 = alloca i64, align 8
  store i64 %0, ptr %2, align 8
  %3 = load i64, ptr %2, align 8
  %4 = inttoptr i64 %3 to ptr
  ret ptr %4
}

; Function Attrs: nounwind uwtable
define dso_local i64 @ginarrayconsistent(ptr noundef %0) #0 {
  %2 = alloca ptr, align 8
  %3 = alloca ptr, align 8
  %4 = alloca i16, align 2
  %5 = alloca i32, align 4
  %6 = alloca ptr, align 8
  %7 = alloca ptr, align 8
  %8 = alloca i8, align 1
  %9 = alloca i32, align 4
  store ptr %0, ptr %2, align 8
  call void @llvm.lifetime.start.p0(i64 8, ptr %3) #5
  %10 = load ptr, ptr %2, align 8
  %11 = getelementptr inbounds nuw %struct.FunctionCallInfoBaseData, ptr %10, i32 0, i32 6
  %12 = getelementptr inbounds [0 x %struct.NullableDatum], ptr %11, i64 0, i64 0
  %13 = getelementptr inbounds nuw %struct.NullableDatum, ptr %12, i32 0, i32 0
  %14 = load i64, ptr %13, align 8
  %15 = call ptr @DatumGetPointer(i64 noundef %14)
  store ptr %15, ptr %3, align 8
  call void @llvm.lifetime.start.p0(i64 2, ptr %4) #5
  %16 = load ptr, ptr %2, align 8
  %17 = getelementptr inbounds nuw %struct.FunctionCallInfoBaseData, ptr %16, i32 0, i32 6
  %18 = getelementptr inbounds [0 x %struct.NullableDatum], ptr %17, i64 0, i64 1
  %19 = getelementptr inbounds nuw %struct.NullableDatum, ptr %18, i32 0, i32 0
  %20 = load i64, ptr %19, align 8
  %21 = call zeroext i16 @DatumGetUInt16(i64 noundef %20)
  store i16 %21, ptr %4, align 2
  call void @llvm.lifetime.start.p0(i64 4, ptr %5) #5
  %22 = load ptr, ptr %2, align 8
  %23 = getelementptr inbounds nuw %struct.FunctionCallInfoBaseData, ptr %22, i32 0, i32 6
  %24 = getelementptr inbounds [0 x %struct.NullableDatum], ptr %23, i64 0, i64 3
  %25 = getelementptr inbounds nuw %struct.NullableDatum, ptr %24, i32 0, i32 0
  %26 = load i64, ptr %25, align 8
  %27 = call i32 @DatumGetInt32(i64 noundef %26)
  store i32 %27, ptr %5, align 4
  call void @llvm.lifetime.start.p0(i64 8, ptr %6) #5
  %28 = load ptr, ptr %2, align 8
  %29 = getelementptr inbounds nuw %struct.FunctionCallInfoBaseData, ptr %28, i32 0, i32 6
  %30 = getelementptr inbounds [0 x %struct.NullableDatum], ptr %29, i64 0, i64 5
  %31 = getelementptr inbounds nuw %struct.NullableDatum, ptr %30, i32 0, i32 0
  %32 = load i64, ptr %31, align 8
  %33 = call ptr @DatumGetPointer(i64 noundef %32)
  store ptr %33, ptr %6, align 8
  call void @llvm.lifetime.start.p0(i64 8, ptr %7) #5
  %34 = load ptr, ptr %2, align 8
  %35 = getelementptr inbounds nuw %struct.FunctionCallInfoBaseData, ptr %34, i32 0, i32 6
  %36 = getelementptr inbounds [0 x %struct.NullableDatum], ptr %35, i64 0, i64 7
  %37 = getelementptr inbounds nuw %struct.NullableDatum, ptr %36, i32 0, i32 0
  %38 = load i64, ptr %37, align 8
  %39 = call ptr @DatumGetPointer(i64 noundef %38)
  store ptr %39, ptr %7, align 8
  call void @llvm.lifetime.start.p0(i64 1, ptr %8) #5
  call void @llvm.lifetime.start.p0(i64 4, ptr %9) #5
  %40 = load i16, ptr %4, align 2
  %41 = zext i16 %40 to i32
  switch i32 %41, label %115 [
    i32 1, label %42
    i32 2, label %68
    i32 3, label %94
    i32 4, label %96
  ]

42:                                               ; preds = %1
  %43 = load ptr, ptr %6, align 8
  store i8 0, ptr %43, align 1
  store i8 0, ptr %8, align 1
  store i32 0, ptr %9, align 4
  br label %44

44:                                               ; preds = %64, %42
  %45 = load i32, ptr %9, align 4
  %46 = load i32, ptr %5, align 4
  %47 = icmp slt i32 %45, %46
  br i1 %47, label %48, label %67

48:                                               ; preds = %44
  %49 = load ptr, ptr %3, align 8
  %50 = load i32, ptr %9, align 4
  %51 = sext i32 %50 to i64
  %52 = getelementptr inbounds i8, ptr %49, i64 %51
  %53 = load i8, ptr %52, align 1, !range !4, !noundef !5
  %54 = trunc i8 %53 to i1
  br i1 %54, label %55, label %63

55:                                               ; preds = %48
  %56 = load ptr, ptr %7, align 8
  %57 = load i32, ptr %9, align 4
  %58 = sext i32 %57 to i64
  %59 = getelementptr inbounds i8, ptr %56, i64 %58
  %60 = load i8, ptr %59, align 1, !range !4, !noundef !5
  %61 = trunc i8 %60 to i1
  br i1 %61, label %63, label %62

62:                                               ; preds = %55
  store i8 1, ptr %8, align 1
  br label %67

63:                                               ; preds = %55, %48
  br label %64

64:                                               ; preds = %63
  %65 = load i32, ptr %9, align 4
  %66 = add i32 %65, 1
  store i32 %66, ptr %9, align 4
  br label %44, !llvm.loop !6

67:                                               ; preds = %62, %44
  br label %128

68:                                               ; preds = %1
  %69 = load ptr, ptr %6, align 8
  store i8 0, ptr %69, align 1
  store i8 1, ptr %8, align 1
  store i32 0, ptr %9, align 4
  br label %70

70:                                               ; preds = %90, %68
  %71 = load i32, ptr %9, align 4
  %72 = load i32, ptr %5, align 4
  %73 = icmp slt i32 %71, %72
  br i1 %73, label %74, label %93

74:                                               ; preds = %70
  %75 = load ptr, ptr %3, align 8
  %76 = load i32, ptr %9, align 4
  %77 = sext i32 %76 to i64
  %78 = getelementptr inbounds i8, ptr %75, i64 %77
  %79 = load i8, ptr %78, align 1, !range !4, !noundef !5
  %80 = trunc i8 %79 to i1
  br i1 %80, label %81, label %88

81:                                               ; preds = %74
  %82 = load ptr, ptr %7, align 8
  %83 = load i32, ptr %9, align 4
  %84 = sext i32 %83 to i64
  %85 = getelementptr inbounds i8, ptr %82, i64 %84
  %86 = load i8, ptr %85, align 1, !range !4, !noundef !5
  %87 = trunc i8 %86 to i1
  br i1 %87, label %88, label %89

88:                                               ; preds = %81, %74
  store i8 0, ptr %8, align 1
  br label %93

89:                                               ; preds = %81
  br label %90

90:                                               ; preds = %89
  %91 = load i32, ptr %9, align 4
  %92 = add i32 %91, 1
  store i32 %92, ptr %9, align 4
  br label %70, !llvm.loop !8

93:                                               ; preds = %88, %70
  br label %128

94:                                               ; preds = %1
  %95 = load ptr, ptr %6, align 8
  store i8 1, ptr %95, align 1
  store i8 1, ptr %8, align 1
  br label %128

96:                                               ; preds = %1
  %97 = load ptr, ptr %6, align 8
  store i8 1, ptr %97, align 1
  store i8 1, ptr %8, align 1
  store i32 0, ptr %9, align 4
  br label %98

98:                                               ; preds = %111, %96
  %99 = load i32, ptr %9, align 4
  %100 = load i32, ptr %5, align 4
  %101 = icmp slt i32 %99, %100
  br i1 %101, label %102, label %114

102:                                              ; preds = %98
  %103 = load ptr, ptr %3, align 8
  %104 = load i32, ptr %9, align 4
  %105 = sext i32 %104 to i64
  %106 = getelementptr inbounds i8, ptr %103, i64 %105
  %107 = load i8, ptr %106, align 1, !range !4, !noundef !5
  %108 = trunc i8 %107 to i1
  br i1 %108, label %110, label %109

109:                                              ; preds = %102
  store i8 0, ptr %8, align 1
  br label %114

110:                                              ; preds = %102
  br label %111

111:                                              ; preds = %110
  %112 = load i32, ptr %9, align 4
  %113 = add i32 %112, 1
  store i32 %113, ptr %9, align 4
  br label %98, !llvm.loop !9

114:                                              ; preds = %109, %98
  br label %128

115:                                              ; preds = %1
  br label %116

116:                                              ; preds = %115
  br i1 true, label %117, label %119

117:                                              ; preds = %116
  %118 = call zeroext i1 @errstart_cold(i32 noundef 21, ptr noundef null) #6
  br i1 %118, label %121, label %125

119:                                              ; preds = %116
  %120 = call zeroext i1 @errstart(i32 noundef 21, ptr noundef null)
  br i1 %120, label %121, label %125

121:                                              ; preds = %119, %117
  %122 = load i16, ptr %4, align 2
  %123 = zext i16 %122 to i32
  %124 = call i32 (ptr, ...) @errmsg_internal(ptr noundef @.str.3, i32 noundef %123)
  call void @errfinish(ptr noundef @.str.1, i32 noundef 215, ptr noundef @__func__.ginarrayconsistent)
  br label %125

125:                                              ; preds = %121, %119, %117
  unreachable

126:                                              ; No predecessors!
  br label %127

127:                                              ; preds = %126
  store i8 0, ptr %8, align 1
  br label %128

128:                                              ; preds = %127, %114, %94, %93, %67
  %129 = load i8, ptr %8, align 1, !range !4, !noundef !5
  %130 = trunc i8 %129 to i1
  %131 = call i64 @BoolGetDatum(i1 noundef zeroext %130)
  call void @llvm.lifetime.end.p0(i64 4, ptr %9) #5
  call void @llvm.lifetime.end.p0(i64 1, ptr %8) #5
  call void @llvm.lifetime.end.p0(i64 8, ptr %7) #5
  call void @llvm.lifetime.end.p0(i64 8, ptr %6) #5
  call void @llvm.lifetime.end.p0(i64 4, ptr %5) #5
  call void @llvm.lifetime.end.p0(i64 2, ptr %4) #5
  call void @llvm.lifetime.end.p0(i64 8, ptr %3) #5
  ret i64 %131
}