; Function Attrs: nounwind uwtable
define dso_local range(i64 0, 2) i64 @ginarrayconsistent(ptr noundef readonly captures(none) %0) local_unnamed_addr #0 {
  %2 = getelementptr inbounds nuw i8, ptr %0, i64 32
  %3 = load i64, ptr %2, align 8
  %4 = inttoptr i64 %3 to ptr
  %5 = getelementptr inbounds nuw i8, ptr %0, i64 48
  %6 = load i64, ptr %5, align 8
  %7 = trunc i64 %6 to i16
  %8 = getelementptr inbounds nuw i8, ptr %0, i64 80
  %9 = load i64, ptr %8, align 8
  %10 = trunc i64 %9 to i32
  %11 = getelementptr inbounds nuw i8, ptr %0, i64 112
  %12 = load i64, ptr %11, align 8
  %13 = inttoptr i64 %12 to ptr
  %14 = getelementptr inbounds nuw i8, ptr %0, i64 144
  %15 = load i64, ptr %14, align 8
  %16 = inttoptr i64 %15 to ptr
  switch i16 %7, label %44 [
    i16 1, label %17
    i16 2, label %27
    i16 3, label %37
    i16 4, label %38
  ]

17:                                               ; preds = %1
  store i8 0, ptr %13, align 1
  %18 = icmp sgt i32 %10, 0
  br i1 %18, label %.lr.ph46.preheader, label %.loopexit

.lr.ph46.preheader:                               ; preds = %17
  %wide.trip.count63 = and i64 %9, 2147483647
  br label %.lr.ph46

.lr.ph46:                                         ; preds = %.lr.ph46.preheader, %26
  %indvars.iv60 = phi i64 [ 0, %.lr.ph46.preheader ], [ %indvars.iv.next61, %26 ]
  %19 = getelementptr inbounds nuw i8, ptr %4, i64 %indvars.iv60
  %20 = load i8, ptr %19, align 1, !range !4, !noundef !5
  %21 = trunc nuw i8 %20 to i1
  br i1 %21, label %22, label %26

22:                                               ; preds = %.lr.ph46
  %23 = getelementptr inbounds nuw i8, ptr %16, i64 %indvars.iv60
  %24 = load i8, ptr %23, align 1, !range !4, !noundef !5
  %25 = trunc nuw i8 %24 to i1
  br i1 %25, label %26, label %.loopexit

26:                                               ; preds = %.lr.ph46, %22
  %indvars.iv.next61 = add nuw nsw i64 %indvars.iv60, 1
  %exitcond64.not = icmp eq i64 %indvars.iv.next61, %wide.trip.count63
  br i1 %exitcond64.not, label %.loopexit, label %.lr.ph46, !llvm.loop !6

27:                                               ; preds = %1
  store i8 0, ptr %13, align 1
  %28 = icmp sgt i32 %10, 0
  br i1 %28, label %.lr.ph39.preheader, label %.loopexit

.lr.ph39.preheader:                               ; preds = %27
  %wide.trip.count58 = and i64 %9, 2147483647
  br label %.lr.ph39

29:                                               ; preds = %33
  %indvars.iv.next56 = add nuw nsw i64 %indvars.iv55, 1
  %exitcond59.not = icmp eq i64 %indvars.iv.next56, %wide.trip.count58
  br i1 %exitcond59.not, label %.loopexit, label %.lr.ph39, !llvm.loop !8

.lr.ph39:                                         ; preds = %.lr.ph39.preheader, %29
  %indvars.iv55 = phi i64 [ 0, %.lr.ph39.preheader ], [ %indvars.iv.next56, %29 ]
  %30 = getelementptr inbounds nuw i8, ptr %4, i64 %indvars.iv55
  %31 = load i8, ptr %30, align 1, !range !4, !noundef !5
  %32 = trunc nuw i8 %31 to i1
  br i1 %32, label %33, label %.loopexit

33:                                               ; preds = %.lr.ph39
  %34 = getelementptr inbounds nuw i8, ptr %16, i64 %indvars.iv55
  %35 = load i8, ptr %34, align 1, !range !4, !noundef !5
  %36 = trunc nuw i8 %35 to i1
  br i1 %36, label %.loopexit, label %29

37:                                               ; preds = %1
  store i8 1, ptr %13, align 1
  br label %.loopexit

38:                                               ; preds = %1
  store i8 1, ptr %13, align 1
  %39 = icmp sgt i32 %10, 0
  br i1 %39, label %.lr.ph.preheader, label %.loopexit

.lr.ph.preheader:                                 ; preds = %38
  %wide.trip.count = and i64 %9, 2147483647
  br label %.lr.ph

40:                                               ; preds = %.lr.ph
  %indvars.iv.next = add nuw nsw i64 %indvars.iv, 1
  %exitcond.not = icmp eq i64 %indvars.iv.next, %wide.trip.count
  br i1 %exitcond.not, label %.loopexit, label %.lr.ph, !llvm.loop !9

.lr.ph:                                           ; preds = %.lr.ph.preheader, %40
  %indvars.iv = phi i64 [ 0, %.lr.ph.preheader ], [ %indvars.iv.next, %40 ]
  %41 = getelementptr inbounds nuw i8, ptr %4, i64 %indvars.iv
  %42 = load i8, ptr %41, align 1, !range !4, !noundef !5
  %43 = trunc nuw i8 %42 to i1
  br i1 %43, label %40, label %.loopexit

44:                                               ; preds = %1
  %45 = trunc i64 %6 to i32
  %46 = and i32 %45, 65535
  %47 = tail call zeroext i1 @errstart_cold(i32 noundef 21, ptr noundef null) #6
  tail call void @llvm.assume(i1 %47)
  %48 = tail call i32 (ptr, ...) @errmsg_internal(ptr noundef nonnull @.str.3, i32 noundef %46) #5
  tail call void @errfinish(ptr noundef nonnull @.str.1, i32 noundef 215, ptr noundef nonnull @__func__.ginarrayconsistent) #5
  unreachable

.loopexit:                                        ; preds = %40, %.lr.ph, %29, %33, %.lr.ph39, %26, %22, %38, %27, %17, %37
  %.030 = phi i64 [ 1, %37 ], [ 0, %17 ], [ 1, %27 ], [ 1, %38 ], [ 0, %26 ], [ 1, %22 ], [ 1, %29 ], [ 0, %33 ], [ 0, %.lr.ph39 ], [ 1, %40 ], [ 0, %.lr.ph ]
  ret i64 %.030
}